target datalayout = "e-m:e-p270:32:32-p271:32:32-p272:64:64-i64:64-i128:128-f80:128-n8:16:32:64-S128"
target triple = "x86_64-pc-linux-gnu"

%struct.boxf = type { %struct.pointf_s, %struct.pointf_s }
%struct.pointf_s = type { double, double }
%struct.ginfo = type { i32, ptr, i32, i64 }

@Verbose = external global i8, align 1
@stderr = external global ptr, align 8
@.str.26 = private unnamed_addr constant [38 x i8] c"cc (%d cells) at (%d,%d) (%.0f,%.0f)\0A\00", align 1

; Function Attrs: nounwind uwtable
define internal i32 @fits(i32 noundef %0, i32 noundef %1, ptr noundef %2, ptr noundef %3, ptr noundef %4, i32 noundef %5, ptr noundef %6) #0 {
  %8 = alloca i32, align 4
  %9 = alloca i32, align 4
  %10 = alloca i32, align 4
  %11 = alloca ptr, align 8
  %12 = alloca ptr, align 8
  %13 = alloca ptr, align 8
  %14 = alloca i32, align 4
  %15 = alloca ptr, align 8
  %16 = alloca ptr, align 8
  %17 = alloca i32, align 4
  %18 = alloca i32, align 4
  %19 = alloca %struct.pointf_s, align 8
  %20 = alloca i32, align 4
  %21 = alloca %struct.pointf_s, align 8
  %22 = alloca %struct.pointf_s, align 8
  store i32 %0, ptr %9, align 4, !tbaa !35
  store i32 %1, ptr %10, align 4, !tbaa !35
  store ptr %2, ptr %11, align 8, !tbaa !12
  store ptr %3, ptr %12, align 8, !tbaa !76
  store ptr %4, ptr %13, align 8, !tbaa !13
  store i32 %5, ptr %14, align 4, !tbaa !35
  store ptr %6, ptr %15, align 8, !tbaa !12
  call void @llvm.lifetime.start.p0(i64 8, ptr %16) #12
  %23 = load ptr, ptr %11, align 8, !tbaa !12
  %24 = getelementptr inbounds nuw %struct.ginfo, ptr %23, i32 0, i32 1
  %25 = load ptr, ptr %24, align 8, !tbaa !81
  store ptr %25, ptr %16, align 8, !tbaa !13
  call void @llvm.lifetime.start.p0(i64 4, ptr %17) #12
  %26 = load ptr, ptr %11, align 8, !tbaa !12
  %27 = getelementptr inbounds nuw %struct.ginfo, ptr %26, i32 0, i32 2
  %28 = load i32, ptr %27, align 8, !tbaa !160
  store i32 %28, ptr %17, align 4, !tbaa !35
  call void @llvm.lifetime.start.p0(i64 4, ptr %18) #12
  store i32 0, ptr %18, align 4, !tbaa !35
  br label %29

29:                                               ; preds = %59, %7
  %30 = load i32, ptr %18, align 4, !tbaa !35
  %31 = load i32, ptr %17, align 4, !tbaa !35
  %32 = icmp slt i32 %30, %31
  br i1 %32, label %33, label %62

33:                                               ; preds = %29
  call void @llvm.lifetime.start.p0(i64 16, ptr %19) #12
  %34 = load ptr, ptr %16, align 8, !tbaa !13
  call void @llvm.memcpy.p0.p0.i64(ptr align 8 %19, ptr align 8 %34, i64 16, i1 false), !tbaa.struct !102
  %35 = load i32, ptr %9, align 4, !tbaa !35
  %36 = sitofp i32 %35 to double
  %37 = getelementptr inbounds nuw %struct.pointf_s, ptr %19, i32 0, i32 0
  %38 = load double, ptr %37, align 8, !tbaa !57
  %39 = fadd double %38, %36
  store double %39, ptr %37, align 8, !tbaa !57
  %40 = load i32, ptr %10, align 4, !tbaa !35
  %41 = sitofp i32 %40 to double
  %42 = getelementptr inbounds nuw %struct.pointf_s, ptr %19, i32 0, i32 1
  %43 = load double, ptr %42, align 8, !tbaa !59
  %44 = fadd double %43, %41
  store double %44, ptr %42, align 8, !tbaa !59
  %45 = load ptr, ptr %12, align 8, !tbaa !76
  %46 = getelementptr inbounds nuw { double, double }, ptr %19, i32 0, i32 0
  %47 = load double, ptr %46, align 8
  %48 = getelementptr inbounds nuw { double, double }, ptr %19, i32 0, i32 1
  %49 = load double, ptr %48, align 8
  %50 = call i32 @inPS(ptr noundef %45, double %47, double %49)
  %51 = icmp ne i32 %50, 0
  br i1 %51, label %52, label %53

52:                                               ; preds = %33
  store i32 0, ptr %8, align 4
  store i32 1, ptr %20, align 4
  br label %56

53:                                               ; preds = %33
  %54 = load ptr, ptr %16, align 8, !tbaa !13
  %55 = getelementptr inbounds nuw %struct.pointf_s, ptr %54, i32 1
  store ptr %55, ptr %16, align 8, !tbaa !13
  store i32 0, ptr %20, align 4
  br label %56

56:                                               ; preds = %53, %52
  call void @llvm.lifetime.end.p0(i64 16, ptr %19) #12
  %57 = load i32, ptr %20, align 4
  switch i32 %57, label %147 [
    i32 0, label %58
  ]

58:                                               ; preds = %56
  br label %59

59:                                               ; preds = %58
  %60 = load i32, ptr %18, align 4, !tbaa !35
  %61 = add nsw i32 %60, 1
  store i32 %61, ptr %18, align 4, !tbaa !35
  br label %29, !llvm.loop !201

62:                                               ; preds = %29
  call void @llvm.lifetime.start.p0(i64 16, ptr %21) #12
  %63 = getelementptr inbounds nuw %struct.pointf_s, ptr %21, i32 0, i32 0
  %64 = load ptr, ptr %15, align 8, !tbaa !12
  %65 = load ptr, ptr %11, align 8, !tbaa !12
  %66 = getelementptr inbounds nuw %struct.ginfo, ptr %65, i32 0, i32 3
  %67 = load i64, ptr %66, align 8, !tbaa !72
  %68 = getelementptr inbounds nuw %struct.boxf, ptr %64, i64 %67
  %69 = getelementptr inbounds nuw %struct.boxf, ptr %68, i32 0, i32 0
  %70 = getelementptr inbounds nuw %struct.pointf_s, ptr %69, i32 0, i32 0
  %71 = load double, ptr %70, align 8, !tbaa !62
  %72 = call double @llvm.round.f64(double %71)
  store double %72, ptr %63, align 8, !tbaa !57
  %73 = getelementptr inbounds nuw %struct.pointf_s, ptr %21, i32 0, i32 1
  %74 = load ptr, ptr %15, align 8, !tbaa !12
  %75 = load ptr, ptr %11, align 8, !tbaa !12
  %76 = getelementptr inbounds nuw %struct.ginfo, ptr %75, i32 0, i32 3
  %77 = load i64, ptr %76, align 8, !tbaa !72
  %78 = getelementptr inbounds nuw %struct.boxf, ptr %74, i64 %77
  %79 = getelementptr inbounds nuw %struct.boxf, ptr %78, i32 0, i32 0
  %80 = getelementptr inbounds nuw %struct.pointf_s, ptr %79, i32 0, i32 1
  %81 = load double, ptr %80, align 8, !tbaa !63
  %82 = call double @llvm.round.f64(double %81)
  store double %82, ptr %73, align 8, !tbaa !59
  %83 = load i32, ptr %14, align 4, !tbaa !35
  %84 = load i32, ptr %9, align 4, !tbaa !35
  %85 = mul nsw i32 %83, %84
  %86 = sitofp i32 %85 to double
  %87 = getelementptr inbounds nuw %struct.pointf_s, ptr %21, i32 0, i32 0
  %88 = load double, ptr %87, align 8, !tbaa !57
  %89 = fsub double %86, %88
  %90 = load ptr, ptr %13, align 8, !tbaa !13
  %91 = getelementptr inbounds nuw %struct.pointf_s, ptr %90, i32 0, i32 0
  store double %89, ptr %91, align 8, !tbaa !57
  %92 = load i32, ptr %14, align 4, !tbaa !35
  %93 = load i32, ptr %10, align 4, !tbaa !35
  %94 = mul nsw i32 %92, %93
  %95 = sitofp i32 %94 to double
  %96 = getelementptr inbounds nuw %struct.pointf_s, ptr %21, i32 0, i32 1
  %97 = load double, ptr %96, align 8, !tbaa !59
  %98 = fsub double %95, %97
  %99 = load ptr, ptr %13, align 8, !tbaa !13
  %100 = getelementptr inbounds nuw %struct.pointf_s, ptr %99, i32 0, i32 1
  store double %98, ptr %100, align 8, !tbaa !59
  %101 = load ptr, ptr %11, align 8, !tbaa !12
  %102 = getelementptr inbounds nuw %struct.ginfo, ptr %101, i32 0, i32 1
  %103 = load ptr, ptr %102, align 8, !tbaa !81
  store ptr %103, ptr %16, align 8, !tbaa !13
  store i32 0, ptr %18, align 4, !tbaa !35
  br label %104

104:                                              ; preds = %127, %62
  %105 = load i32, ptr %18, align 4, !tbaa !35
  %106 = load i32, ptr %17, align 4, !tbaa !35
  %107 = icmp slt i32 %105, %106
  br i1 %107, label %108, label %130

108:                                              ; preds = %104
  call void @llvm.lifetime.start.p0(i64 16, ptr %22) #12
  %109 = load ptr, ptr %16, align 8, !tbaa !13
  call void @llvm.memcpy.p0.p0.i64(ptr align 8 %22, ptr align 8 %109, i64 16, i1 false), !tbaa.struct !102
  %110 = load i32, ptr %9, align 4, !tbaa !35
  %111 = sitofp i32 %110 to double
  %112 = getelementptr inbounds nuw %struct.pointf_s, ptr %22, i32 0, i32 0
  %113 = load double, ptr %112, align 8, !tbaa !57
  %114 = fadd double %113, %111
  store double %114, ptr %112, align 8, !tbaa !57
  %115 = load i32, ptr %10, align 4, !tbaa !35
  %116 = sitofp i32 %115 to double
  %117 = getelementptr inbounds nuw %struct.pointf_s, ptr %22, i32 0, i32 1
  %118 = load double, ptr %117, align 8, !tbaa !59
  %119 = fadd double %118, %116
  store double %119, ptr %117, align 8, !tbaa !59
  %120 = load ptr, ptr %12, align 8, !tbaa !76
  %121 = getelementptr inbounds nuw { double, double }, ptr %22, i32 0, i32 0
  %122 = load double, ptr %121, align 8
  %123 = getelementptr inbounds nuw { double, double }, ptr %22, i32 0, i32 1
  %124 = load double, ptr %123, align 8
  call void @insertPS(ptr noundef %120, double %122, double %124)
  %125 = load ptr, ptr %16, align 8, !tbaa !13
  %126 = getelementptr inbounds nuw %struct.pointf_s, ptr %125, i32 1
  store ptr %126, ptr %16, align 8, !tbaa !13
  call void @llvm.lifetime.end.p0(i64 16, ptr %22) #12
  br label %127

127:                                              ; preds = %108
  %128 = load i32, ptr %18, align 4, !tbaa !35
  %129 = add nsw i32 %128, 1
  store i32 %129, ptr %18, align 4, !tbaa !35
  br label %104, !llvm.loop !202

130:                                              ; preds = %104
  %131 = load i8, ptr @Verbose, align 1, !tbaa !66
  %132 = zext i8 %131 to i32
  %133 = icmp sge i32 %132, 2
  br i1 %133, label %134, label %146

134:                                              ; preds = %130
  %135 = load ptr, ptr @stderr, align 8, !tbaa !67
  %136 = load i32, ptr %17, align 4, !tbaa !35
  %137 = load i32, ptr %9, align 4, !tbaa !35
  %138 = load i32, ptr %10, align 4, !tbaa !35
  %139 = load ptr, ptr %13, align 8, !tbaa !13
  %140 = getelementptr inbounds nuw %struct.pointf_s, ptr %139, i32 0, i32 0
  %141 = load double, ptr %140, align 8, !tbaa !57
  %142 = load ptr, ptr %13, align 8, !tbaa !13
  %143 = getelementptr inbounds nuw %struct.pointf_s, ptr %142, i32 0, i32 1
  %144 = load double, ptr %143, align 8, !tbaa !59
  %145 = call i32 (ptr, ptr, ...) @fprintf(ptr noundef %135, ptr noundef @.str.26, i32 noundef %136, i32 noundef %137, i32 noundef %138, double noundef %141, double noundef %144) #12
  br label %146

146:                                              ; preds = %134, %130
  store i32 1, ptr %8, align 4
  store i32 1, ptr %20, align 4
  call void @llvm.lifetime.end.p0(i64 16, ptr %21) #12
  br label %147

147:                                              ; preds = %146, %56
  call void @llvm.lifetime.end.p0(i64 4, ptr %18) #12
  call void @llvm.lifetime.end.p0(i64 4, ptr %17) #12
  call void @llvm.lifetime.end.p0(i64 8, ptr %16) #12
  %148 = load i32, ptr %8, align 4
  ret i32 %148
}