; Function Attrs: nounwind uwtable
define internal fastcc range(i32 0, 2) i32 @fits(i32 noundef %0, i32 noundef %1, ptr noundef readonly captures(none) %2, ptr noundef %3, ptr noundef captures(none) %4, i32 noundef range(i32 1, -2147483648) %5, ptr noundef readonly captures(none) %6) unnamed_addr #0 {
  %8 = getelementptr inbounds nuw i8, ptr %2, i64 8
  %9 = getelementptr inbounds nuw i8, ptr %2, i64 16
  %10 = load i32, ptr %9, align 8, !tbaa !92
  %11 = icmp sgt i32 %10, 0
  br i1 %11, label %.lr.ph, label %._crit_edge

.lr.ph:                                           ; preds = %7
  %12 = load ptr, ptr %8, align 8, !tbaa !91
  %13 = sitofp i32 %0 to double
  %14 = sitofp i32 %1 to double
  br label %15

15:                                               ; preds = %.lr.ph, %19
  %.04250 = phi ptr [ %12, %.lr.ph ], [ %20, %19 ]
  %.04549 = phi i32 [ 0, %.lr.ph ], [ %21, %19 ]
  %.sroa.04.0.copyload = load double, ptr %.04250, align 8, !tbaa !52
  %.sroa.66.0..sroa_idx = getelementptr inbounds nuw i8, ptr %.04250, i64 8
  %.sroa.66.0.copyload = load double, ptr %.sroa.66.0..sroa_idx, align 8, !tbaa !52
  %16 = fadd double %.sroa.04.0.copyload, %13
  %17 = fadd double %.sroa.66.0.copyload, %14
  %18 = tail call i32 @inPS(ptr noundef %3, double %16, double %17) #19
  %.not = icmp eq i32 %18, 0
  br i1 %.not, label %19, label %.loopexit

19:                                               ; preds = %15
  %20 = getelementptr inbounds nuw i8, ptr %.04250, i64 16
  %21 = add nuw nsw i32 %.04549, 1
  %exitcond.not = icmp eq i32 %21, %10
  br i1 %exitcond.not, label %._crit_edge, label %15, !llvm.loop !186

._crit_edge:                                      ; preds = %19, %7
  %22 = getelementptr inbounds nuw i8, ptr %2, i64 24
  %23 = load i64, ptr %22, align 8, !tbaa !54
  %24 = getelementptr inbounds nuw %struct.boxf, ptr %6, i64 %23
  %25 = load double, ptr %24, align 8, !tbaa !167
  %26 = tail call double @llvm.round.f64(double %25)
  %27 = getelementptr inbounds nuw i8, ptr %24, i64 8
  %28 = load double, ptr %27, align 8, !tbaa !168
  %29 = tail call double @llvm.round.f64(double %28)
  %30 = mul nsw i32 %5, %0
  %31 = sitofp i32 %30 to double
  %32 = fsub double %31, %26
  store double %32, ptr %4, align 8, !tbaa !94
  %33 = mul nsw i32 %5, %1
  %34 = sitofp i32 %33 to double
  %35 = fsub double %34, %29
  %36 = getelementptr inbounds nuw i8, ptr %4, i64 8
  store double %35, ptr %36, align 8, !tbaa !95
  br i1 %11, label %.lr.ph54, label %._crit_edge55

.lr.ph54:                                         ; preds = %._crit_edge
  %37 = load ptr, ptr %8, align 8, !tbaa !91
  %38 = sitofp i32 %0 to double
  %39 = sitofp i32 %1 to double
  br label %40

40:                                               ; preds = %.lr.ph54, %40
  %.24452 = phi ptr [ %37, %.lr.ph54 ], [ %43, %40 ]
  %.14651 = phi i32 [ 0, %.lr.ph54 ], [ %44, %40 ]
  %.sroa.0.0.copyload = load double, ptr %.24452, align 8, !tbaa !52
  %.sroa.6.0..sroa_idx = getelementptr inbounds nuw i8, ptr %.24452, i64 8
  %.sroa.6.0.copyload = load double, ptr %.sroa.6.0..sroa_idx, align 8, !tbaa !52
  %41 = fadd double %.sroa.0.0.copyload, %38
  %42 = fadd double %.sroa.6.0.copyload, %39
  tail call void @insertPS(ptr noundef %3, double %41, double %42) #19
  %43 = getelementptr inbounds nuw i8, ptr %.24452, i64 16
  %44 = add nuw nsw i32 %.14651, 1
  %exitcond56.not = icmp eq i32 %44, %10
  br i1 %exitcond56.not, label %._crit_edge55, label %40, !llvm.loop !187

._crit_edge55:                                    ; preds = %40, %._crit_edge
  %45 = load i8, ptr @Verbose, align 1, !tbaa !47
  %46 = icmp ugt i8 %45, 1
  br i1 %46, label %47, label %.loopexit

47:                                               ; preds = %._crit_edge55
  %48 = load ptr, ptr @stderr, align 8, !tbaa !14
  %49 = load double, ptr %4, align 8, !tbaa !94
  %50 = load double, ptr %36, align 8, !tbaa !95
  %51 = tail call i32 (ptr, ptr, ...) @fprintf(ptr noundef %48, ptr noundef nonnull @.str.26, i32 noundef %10, i32 noundef %0, i32 noundef %1, double noundef %49, double noundef %50) #20
  br label %.loopexit

.loopexit:                                        ; preds = %15, %._crit_edge55, %47
  %.2 = phi i32 [ 1, %47 ], [ 1, %._crit_edge55 ], [ 0, %15 ]
  ret i32 %.2
}